target datalayout = "e-m:e-p270:32:32-p271:32:32-p272:64:64-i64:64-i128:128-f80:128-n8:16:32:64-S128"
target triple = "x86_64-pc-linux-gnu"

@hf_afp_pad = internal global i32 0, align 4
@hf_afp_file_bitmap = internal global i32 0, align 4
@hf_afp_vol_id = internal global i32 0, align 4
@hf_afp_dir_bitmap = internal global i32 0, align 4
@hf_afp_request_bitmap = internal global i32 0, align 4
@hf_afp_request_bitmap_Attributes = internal global i32 0, align 4
@hf_afp_request_bitmap_ParentDirID = internal global i32 0, align 4
@hf_afp_request_bitmap_CreateDate = internal global i32 0, align 4
@hf_afp_request_bitmap_ModDate = internal global i32 0, align 4
@hf_afp_request_bitmap_BackupDate = internal global i32 0, align 4
@hf_afp_request_bitmap_FinderInfo = internal global i32 0, align 4
@hf_afp_request_bitmap_LongName = internal global i32 0, align 4
@hf_afp_request_bitmap_DataForkLen = internal global i32 0, align 4
@hf_afp_request_bitmap_OffspringCount = internal global i32 0, align 4
@hf_afp_request_bitmap_RsrcForkLen = internal global i32 0, align 4
@hf_afp_request_bitmap_ExtDataForkLen = internal global i32 0, align 4
@hf_afp_request_bitmap_UTF8Name = internal global i32 0, align 4
@hf_afp_request_bitmap_ExtRsrcForkLen = internal global i32 0, align 4
@hf_afp_request_bitmap_PartialNames = internal global i32 0, align 4
@hf_afp_cat_req_matches = internal global i32 0, align 4
@hf_afp_reserved = internal global i32 0, align 4
@hf_afp_cat_position = internal global i32 0, align 4
@ett_afp_dir_bitmap = internal global i32 0, align 4
@ett_afp_file_bitmap = internal global i32 0, align 4
@ett_afp_cat_r_bitmap = internal global i32 0, align 4
@.str.1077 = private unnamed_addr constant [7 x i8] c"Spec 1\00", align 1
@.str.1078 = private unnamed_addr constant [7 x i8] c"Spec 2\00", align 1

; Function Attrs: null_pointer_is_valid sspstrong uwtable
define internal zeroext i16 @decode_dir_bitmap(ptr noundef %0, ptr noundef %1, i32 noundef %2) #1 {
  %4 = alloca ptr, align 8
  %5 = alloca ptr, align 8
  %6 = alloca i32, align 4
  %7 = alloca i16, align 2
  store ptr %0, ptr %4, align 8
  store ptr %1, ptr %5, align 8
  store i32 %2, ptr %6, align 4
  call void @llvm.lifetime.start.p0(i64 2, ptr %7) #8
  %8 = load ptr, ptr %4, align 8
  %9 = load ptr, ptr %5, align 8
  %10 = load i32, ptr %6, align 4
  %11 = load i32, ptr @hf_afp_dir_bitmap, align 4
  %12 = load i32, ptr @ett_afp_dir_bitmap, align 4
  %13 = call ptr @proto_tree_add_bitmask(ptr noundef %8, ptr noundef %9, i32 noundef %10, i32 noundef %11, i32 noundef %12, ptr noundef @decode_dir_bitmap.bitmaps, i32 noundef 0)
  %14 = load ptr, ptr %5, align 8
  %15 = load i32, ptr %6, align 4
  %16 = call zeroext i16 @tvb_get_ntohs(ptr noundef %14, i32 noundef %15)
  store i16 %16, ptr %7, align 2
  %17 = load i16, ptr %7, align 2
  call void @llvm.lifetime.end.p0(i64 2, ptr %7) #8
  ret i16 %17
}

; Function Attrs: null_pointer_is_valid sspstrong uwtable
define internal zeroext i16 @decode_file_bitmap(ptr noundef %0, ptr noundef %1, i32 noundef %2) #1 {
  %4 = alloca ptr, align 8
  %5 = alloca ptr, align 8
  %6 = alloca i32, align 4
  %7 = alloca i16, align 2
  store ptr %0, ptr %4, align 8
  store ptr %1, ptr %5, align 8
  store i32 %2, ptr %6, align 4
  call void @llvm.lifetime.start.p0(i64 2, ptr %7) #8
  %8 = load ptr, ptr %4, align 8
  %9 = load ptr, ptr %5, align 8
  %10 = load i32, ptr %6, align 4
  %11 = load i32, ptr @hf_afp_file_bitmap, align 4
  %12 = load i32, ptr @ett_afp_file_bitmap, align 4
  %13 = call ptr @proto_tree_add_bitmask(ptr noundef %8, ptr noundef %9, i32 noundef %10, i32 noundef %11, i32 noundef %12, ptr noundef @decode_file_bitmap.bitmaps, i32 noundef 0)
  %14 = load ptr, ptr %5, align 8
  %15 = load i32, ptr %6, align 4
  %16 = call zeroext i16 @tvb_get_ntohs(ptr noundef %14, i32 noundef %15)
  store i16 %16, ptr %7, align 2
  %17 = load i16, ptr %7, align 2
  call void @llvm.lifetime.end.p0(i64 2, ptr %7) #8
  ret i16 %17
}

; Function Attrs: null_pointer_is_valid sspstrong uwtable
define internal i32 @query_catsearch(ptr noundef %0, ptr noundef %1, i32 noundef %2, i32 noundef %3) #1 {
  %5 = alloca i32, align 4
  %6 = alloca ptr, align 8
  %7 = alloca ptr, align 8
  %8 = alloca i32, align 4
  %9 = alloca i32, align 4
  %10 = alloca ptr, align 8
  %11 = alloca ptr, align 8
  %12 = alloca ptr, align 8
  %13 = alloca i16, align 2
  %14 = alloca i16, align 2
  %15 = alloca i32, align 4
  %16 = alloca i32, align 4
  store ptr %0, ptr %6, align 8
  store ptr %1, ptr %7, align 8
  store i32 %2, ptr %8, align 4
  store i32 %3, ptr %9, align 4
  call void @llvm.lifetime.start.p0(i64 8, ptr %10) #8
  store ptr null, ptr %10, align 8
  call void @llvm.lifetime.start.p0(i64 8, ptr %11) #8
  call void @llvm.lifetime.start.p0(i64 8, ptr %12) #8
  call void @llvm.lifetime.start.p0(i64 2, ptr %13) #8
  call void @llvm.lifetime.start.p0(i64 2, ptr %14) #8
  call void @llvm.lifetime.start.p0(i64 4, ptr %15) #8
  %17 = load ptr, ptr %7, align 8
  %18 = icmp ne ptr %17, null
  br i1 %18, label %21, label %19

19:                                               ; preds = %4
  %20 = load i32, ptr %8, align 4
  store i32 %20, ptr %5, align 4
  store i32 1, ptr %16, align 4
  br label %180

21:                                               ; preds = %4
  %22 = load ptr, ptr %10, align 8
  %23 = load i32, ptr @hf_afp_pad, align 4
  %24 = load ptr, ptr %6, align 8
  %25 = load i32, ptr %8, align 4
  %26 = call ptr @proto_tree_add_item(ptr noundef %22, i32 noundef %23, ptr noundef %24, i32 noundef %25, i32 noundef 1, i32 noundef 0)
  %27 = load i32, ptr %8, align 4
  %28 = add i32 %27, 1
  store i32 %28, ptr %8, align 4
  %29 = load ptr, ptr %7, align 8
  %30 = load i32, ptr @hf_afp_vol_id, align 4
  %31 = load ptr, ptr %6, align 8
  %32 = load i32, ptr %8, align 4
  %33 = call ptr @proto_tree_add_item(ptr noundef %29, i32 noundef %30, ptr noundef %31, i32 noundef %32, i32 noundef 2, i32 noundef 0)
  %34 = load i32, ptr %8, align 4
  %35 = add i32 %34, 2
  store i32 %35, ptr %8, align 4
  %36 = load ptr, ptr %7, align 8
  %37 = load i32, ptr @hf_afp_cat_req_matches, align 4
  %38 = load ptr, ptr %6, align 8
  %39 = load i32, ptr %8, align 4
  %40 = call ptr @proto_tree_add_item(ptr noundef %36, i32 noundef %37, ptr noundef %38, i32 noundef %39, i32 noundef 4, i32 noundef 0)
  %41 = load i32, ptr %8, align 4
  %42 = add i32 %41, 4
  store i32 %42, ptr %8, align 4
  %43 = load ptr, ptr %7, align 8
  %44 = load i32, ptr @hf_afp_reserved, align 4
  %45 = load ptr, ptr %6, align 8
  %46 = load i32, ptr %8, align 4
  %47 = call ptr @proto_tree_add_item(ptr noundef %43, i32 noundef %44, ptr noundef %45, i32 noundef %46, i32 noundef 4, i32 noundef 0)
  %48 = load i32, ptr %8, align 4
  %49 = add i32 %48, 4
  store i32 %49, ptr %8, align 4
  %50 = load ptr, ptr %7, align 8
  %51 = load i32, ptr @hf_afp_cat_position, align 4
  %52 = load ptr, ptr %6, align 8
  %53 = load i32, ptr %8, align 4
  %54 = call ptr @proto_tree_add_item(ptr noundef %50, i32 noundef %51, ptr noundef %52, i32 noundef %53, i32 noundef 16, i32 noundef 0)
  %55 = load i32, ptr %8, align 4
  %56 = add i32 %55, 16
  store i32 %56, ptr %8, align 4
  %57 = load ptr, ptr %7, align 8
  %58 = load ptr, ptr %6, align 8
  %59 = load i32, ptr %8, align 4
  %60 = call zeroext i16 @decode_file_bitmap(ptr noundef %57, ptr noundef %58, i32 noundef %59)
  store i16 %60, ptr %13, align 2
  %61 = load i32, ptr %8, align 4
  %62 = add i32 %61, 2
  store i32 %62, ptr %8, align 4
  %63 = load ptr, ptr %7, align 8
  %64 = load ptr, ptr %6, align 8
  %65 = load i32, ptr %8, align 4
  %66 = call zeroext i16 @decode_dir_bitmap(ptr noundef %63, ptr noundef %64, i32 noundef %65)
  store i16 %66, ptr %14, align 2
  %67 = load i32, ptr %8, align 4
  %68 = add i32 %67, 2
  store i32 %68, ptr %8, align 4
  %69 = load ptr, ptr %6, align 8
  %70 = load i32, ptr %8, align 4
  %71 = call i32 @tvb_get_ntohl(ptr noundef %69, i32 noundef %70)
  store i32 %71, ptr %15, align 4
  %72 = load ptr, ptr %7, align 8
  %73 = load i32, ptr @hf_afp_request_bitmap, align 4
  %74 = load ptr, ptr %6, align 8
  %75 = load i32, ptr %8, align 4
  %76 = call ptr @proto_tree_add_item(ptr noundef %72, i32 noundef %73, ptr noundef %74, i32 noundef %75, i32 noundef 4, i32 noundef 0)
  store ptr %76, ptr %12, align 8
  %77 = load ptr, ptr %12, align 8
  %78 = load i32, ptr @ett_afp_cat_r_bitmap, align 4
  %79 = call ptr @proto_item_add_subtree(ptr noundef %77, i32 noundef %78)
  store ptr %79, ptr %11, align 8
  %80 = load ptr, ptr %11, align 8
  %81 = load i32, ptr @hf_afp_request_bitmap_Attributes, align 4
  %82 = load ptr, ptr %6, align 8
  %83 = load i32, ptr %8, align 4
  %84 = call ptr @proto_tree_add_item(ptr noundef %80, i32 noundef %81, ptr noundef %82, i32 noundef %83, i32 noundef 4, i32 noundef 0)
  %85 = load ptr, ptr %11, align 8
  %86 = load i32, ptr @hf_afp_request_bitmap_ParentDirID, align 4
  %87 = load ptr, ptr %6, align 8
  %88 = load i32, ptr %8, align 4
  %89 = call ptr @proto_tree_add_item(ptr noundef %85, i32 noundef %86, ptr noundef %87, i32 noundef %88, i32 noundef 4, i32 noundef 0)
  %90 = load ptr, ptr %11, align 8
  %91 = load i32, ptr @hf_afp_request_bitmap_CreateDate, align 4
  %92 = load ptr, ptr %6, align 8
  %93 = load i32, ptr %8, align 4
  %94 = call ptr @proto_tree_add_item(ptr noundef %90, i32 noundef %91, ptr noundef %92, i32 noundef %93, i32 noundef 4, i32 noundef 0)
  %95 = load ptr, ptr %11, align 8
  %96 = load i32, ptr @hf_afp_request_bitmap_ModDate, align 4
  %97 = load ptr, ptr %6, align 8
  %98 = load i32, ptr %8, align 4
  %99 = call ptr @proto_tree_add_item(ptr noundef %95, i32 noundef %96, ptr noundef %97, i32 noundef %98, i32 noundef 4, i32 noundef 0)
  %100 = load ptr, ptr %11, align 8
  %101 = load i32, ptr @hf_afp_request_bitmap_BackupDate, align 4
  %102 = load ptr, ptr %6, align 8
  %103 = load i32, ptr %8, align 4
  %104 = call ptr @proto_tree_add_item(ptr noundef %100, i32 noundef %101, ptr noundef %102, i32 noundef %103, i32 noundef 4, i32 noundef 0)
  %105 = load ptr, ptr %11, align 8
  %106 = load i32, ptr @hf_afp_request_bitmap_FinderInfo, align 4
  %107 = load ptr, ptr %6, align 8
  %108 = load i32, ptr %8, align 4
  %109 = call ptr @proto_tree_add_item(ptr noundef %105, i32 noundef %106, ptr noundef %107, i32 noundef %108, i32 noundef 4, i32 noundef 0)
  %110 = load ptr, ptr %11, align 8
  %111 = load i32, ptr @hf_afp_request_bitmap_LongName, align 4
  %112 = load ptr, ptr %6, align 8
  %113 = load i32, ptr %8, align 4
  %114 = call ptr @proto_tree_add_item(ptr noundef %110, i32 noundef %111, ptr noundef %112, i32 noundef %113, i32 noundef 4, i32 noundef 0)
  %115 = load i16, ptr %14, align 2
  %116 = zext i16 %115 to i32
  %117 = icmp eq i32 %116, 0
  br i1 %117, label %118, label %134

118:                                              ; preds = %21
  %119 = load ptr, ptr %11, align 8
  %120 = load i32, ptr @hf_afp_request_bitmap_DataForkLen, align 4
  %121 = load ptr, ptr %6, align 8
  %122 = load i32, ptr %8, align 4
  %123 = call ptr @proto_tree_add_item(ptr noundef %119, i32 noundef %120, ptr noundef %121, i32 noundef %122, i32 noundef 4, i32 noundef 0)
  %124 = load ptr, ptr %11, align 8
  %125 = load i32, ptr @hf_afp_request_bitmap_RsrcForkLen, align 4
  %126 = load ptr, ptr %6, align 8
  %127 = load i32, ptr %8, align 4
  %128 = call ptr @proto_tree_add_item(ptr noundef %124, i32 noundef %125, ptr noundef %126, i32 noundef %127, i32 noundef 4, i32 noundef 0)
  %129 = load ptr, ptr %11, align 8
  %130 = load i32, ptr @hf_afp_request_bitmap_ExtDataForkLen, align 4
  %131 = load ptr, ptr %6, align 8
  %132 = load i32, ptr %8, align 4
  %133 = call ptr @proto_tree_add_item(ptr noundef %129, i32 noundef %130, ptr noundef %131, i32 noundef %132, i32 noundef 4, i32 noundef 0)
  br label %134

134:                                              ; preds = %118, %21
  %135 = load i16, ptr %13, align 2
  %136 = zext i16 %135 to i32
  %137 = icmp eq i32 %136, 0
  br i1 %137, label %138, label %144

138:                                              ; preds = %134
  %139 = load ptr, ptr %11, align 8
  %140 = load i32, ptr @hf_afp_request_bitmap_OffspringCount, align 4
  %141 = load ptr, ptr %6, align 8
  %142 = load i32, ptr %8, align 4
  %143 = call ptr @proto_tree_add_item(ptr noundef %139, i32 noundef %140, ptr noundef %141, i32 noundef %142, i32 noundef 4, i32 noundef 0)
  br label %144

144:                                              ; preds = %138, %134
  %145 = load ptr, ptr %11, align 8
  %146 = load i32, ptr @hf_afp_request_bitmap_UTF8Name, align 4
  %147 = load ptr, ptr %6, align 8
  %148 = load i32, ptr %8, align 4
  %149 = call ptr @proto_tree_add_item(ptr noundef %145, i32 noundef %146, ptr noundef %147, i32 noundef %148, i32 noundef 4, i32 noundef 0)
  %150 = load i16, ptr %14, align 2
  %151 = zext i16 %150 to i32
  %152 = icmp eq i32 %151, 0
  br i1 %152, label %153, label %159

153:                                              ; preds = %144
  %154 = load ptr, ptr %11, align 8
  %155 = load i32, ptr @hf_afp_request_bitmap_ExtRsrcForkLen, align 4
  %156 = load ptr, ptr %6, align 8
  %157 = load i32, ptr %8, align 4
  %158 = call ptr @proto_tree_add_item(ptr noundef %154, i32 noundef %155, ptr noundef %156, i32 noundef %157, i32 noundef 4, i32 noundef 0)
  br label %159

159:                                              ; preds = %153, %144
  %160 = load ptr, ptr %11, align 8
  %161 = load i32, ptr @hf_afp_request_bitmap_PartialNames, align 4
  %162 = load ptr, ptr %6, align 8
  %163 = load i32, ptr %8, align 4
  %164 = call ptr @proto_tree_add_item(ptr noundef %160, i32 noundef %161, ptr noundef %162, i32 noundef %163, i32 noundef 4, i32 noundef 0)
  %165 = load i32, ptr %8, align 4
  %166 = add i32 %165, 4
  store i32 %166, ptr %8, align 4
  %167 = load ptr, ptr %6, align 8
  %168 = load ptr, ptr %7, align 8
  %169 = load i32, ptr %8, align 4
  %170 = load i32, ptr %9, align 4
  %171 = load i32, ptr %15, align 4
  %172 = call i32 @catsearch_spec(ptr noundef %167, ptr noundef %168, i32 noundef %169, i32 noundef %170, i32 noundef %171, ptr noundef @.str.1077)
  store i32 %172, ptr %8, align 4
  %173 = load ptr, ptr %6, align 8
  %174 = load ptr, ptr %7, align 8
  %175 = load i32, ptr %8, align 4
  %176 = load i32, ptr %9, align 4
  %177 = load i32, ptr %15, align 4
  %178 = call i32 @catsearch_spec(ptr noundef %173, ptr noundef %174, i32 noundef %175, i32 noundef %176, i32 noundef %177, ptr noundef @.str.1078)
  store i32 %178, ptr %8, align 4
  %179 = load i32, ptr %8, align 4
  store i32 %179, ptr %5, align 4
  store i32 1, ptr %16, align 4
  br label %180

180:                                              ; preds = %159, %19
  call void @llvm.lifetime.end.p0(i64 4, ptr %15) #8
  call void @llvm.lifetime.end.p0(i64 2, ptr %14) #8
  call void @llvm.lifetime.end.p0(i64 2, ptr %13) #8
  call void @llvm.lifetime.end.p0(i64 8, ptr %12) #8
  call void @llvm.lifetime.end.p0(i64 8, ptr %11) #8
  call void @llvm.lifetime.end.p0(i64 8, ptr %10) #8
  %181 = load i32, ptr %5, align 4
  ret i32 %181
}