; Function Attrs: null_pointer_is_valid sspstrong uwtable
define internal fastcc noundef i32 @query_catsearch(ptr noundef %0, ptr noundef %1, i32 noundef range(i32 0, 2) %2) unnamed_addr #1 {
  %.not = icmp eq ptr %1, null
  br i1 %.not, label %66, label %4

4:                                                ; preds = %3
  %5 = load i32, ptr @hf_afp_pad, align 4
  %6 = tail call ptr @proto_tree_add_item(ptr noundef null, i32 noundef %5, ptr noundef %0, i32 noundef 1, i32 noundef 1, i32 noundef 0)
  %7 = load i32, ptr @hf_afp_vol_id, align 4
  %8 = tail call ptr @proto_tree_add_item(ptr noundef nonnull %1, i32 noundef %7, ptr noundef %0, i32 noundef 2, i32 noundef 2, i32 noundef 0)
  %9 = load i32, ptr @hf_afp_cat_req_matches, align 4
  %10 = tail call ptr @proto_tree_add_item(ptr noundef nonnull %1, i32 noundef %9, ptr noundef %0, i32 noundef 4, i32 noundef 4, i32 noundef 0)
  %11 = load i32, ptr @hf_afp_reserved, align 4
  %12 = tail call ptr @proto_tree_add_item(ptr noundef nonnull %1, i32 noundef %11, ptr noundef %0, i32 noundef 8, i32 noundef 4, i32 noundef 0)
  %13 = load i32, ptr @hf_afp_cat_position, align 4
  %14 = tail call ptr @proto_tree_add_item(ptr noundef nonnull %1, i32 noundef %13, ptr noundef %0, i32 noundef 12, i32 noundef 16, i32 noundef 0)
  %15 = load i32, ptr @hf_afp_file_bitmap, align 4
  %16 = load i32, ptr @ett_afp_file_bitmap, align 4
  %17 = tail call ptr @proto_tree_add_bitmask(ptr noundef nonnull %1, ptr noundef %0, i32 noundef 28, i32 noundef %15, i32 noundef %16, ptr noundef nonnull @decode_file_bitmap.bitmaps, i32 noundef 0)
  %18 = tail call zeroext i16 @tvb_get_ntohs(ptr noundef %0, i32 noundef 28)
  %19 = load i32, ptr @hf_afp_dir_bitmap, align 4
  %20 = load i32, ptr @ett_afp_dir_bitmap, align 4
  %21 = tail call ptr @proto_tree_add_bitmask(ptr noundef nonnull %1, ptr noundef %0, i32 noundef 30, i32 noundef %19, i32 noundef %20, ptr noundef nonnull @decode_dir_bitmap.bitmaps, i32 noundef 0)
  %22 = tail call zeroext i16 @tvb_get_ntohs(ptr noundef %0, i32 noundef 30)
  %23 = tail call i32 @tvb_get_ntohl(ptr noundef %0, i32 noundef 32)
  %24 = load i32, ptr @hf_afp_request_bitmap, align 4
  %25 = tail call ptr @proto_tree_add_item(ptr noundef nonnull %1, i32 noundef %24, ptr noundef %0, i32 noundef 32, i32 noundef 4, i32 noundef 0)
  %26 = load i32, ptr @ett_afp_cat_r_bitmap, align 4
  %27 = tail call ptr @proto_item_add_subtree(ptr noundef %25, i32 noundef %26)
  %28 = load i32, ptr @hf_afp_request_bitmap_Attributes, align 4
  %29 = tail call ptr @proto_tree_add_item(ptr noundef %27, i32 noundef %28, ptr noundef %0, i32 noundef 32, i32 noundef 4, i32 noundef 0)
  %30 = load i32, ptr @hf_afp_request_bitmap_ParentDirID, align 4
  %31 = tail call ptr @proto_tree_add_item(ptr noundef %27, i32 noundef %30, ptr noundef %0, i32 noundef 32, i32 noundef 4, i32 noundef 0)
  %32 = load i32, ptr @hf_afp_request_bitmap_CreateDate, align 4
  %33 = tail call ptr @proto_tree_add_item(ptr noundef %27, i32 noundef %32, ptr noundef %0, i32 noundef 32, i32 noundef 4, i32 noundef 0)
  %34 = load i32, ptr @hf_afp_request_bitmap_ModDate, align 4
  %35 = tail call ptr @proto_tree_add_item(ptr noundef %27, i32 noundef %34, ptr noundef %0, i32 noundef 32, i32 noundef 4, i32 noundef 0)
  %36 = load i32, ptr @hf_afp_request_bitmap_BackupDate, align 4
  %37 = tail call ptr @proto_tree_add_item(ptr noundef %27, i32 noundef %36, ptr noundef %0, i32 noundef 32, i32 noundef 4, i32 noundef 0)
  %38 = load i32, ptr @hf_afp_request_bitmap_FinderInfo, align 4
  %39 = tail call ptr @proto_tree_add_item(ptr noundef %27, i32 noundef %38, ptr noundef %0, i32 noundef 32, i32 noundef 4, i32 noundef 0)
  %40 = load i32, ptr @hf_afp_request_bitmap_LongName, align 4
  %41 = tail call ptr @proto_tree_add_item(ptr noundef %27, i32 noundef %40, ptr noundef %0, i32 noundef 32, i32 noundef 4, i32 noundef 0)
  %42 = icmp eq i16 %22, 0
  br i1 %42, label %43, label %50

43:                                               ; preds = %4
  %44 = load i32, ptr @hf_afp_request_bitmap_DataForkLen, align 4
  %45 = tail call ptr @proto_tree_add_item(ptr noundef %27, i32 noundef %44, ptr noundef %0, i32 noundef 32, i32 noundef 4, i32 noundef 0)
  %46 = load i32, ptr @hf_afp_request_bitmap_RsrcForkLen, align 4
  %47 = tail call ptr @proto_tree_add_item(ptr noundef %27, i32 noundef %46, ptr noundef %0, i32 noundef 32, i32 noundef 4, i32 noundef 0)
  %48 = load i32, ptr @hf_afp_request_bitmap_ExtDataForkLen, align 4
  %49 = tail call ptr @proto_tree_add_item(ptr noundef %27, i32 noundef %48, ptr noundef %0, i32 noundef 32, i32 noundef 4, i32 noundef 0)
  br label %50

50:                                               ; preds = %43, %4
  %51 = icmp eq i16 %18, 0
  br i1 %51, label %52, label %55

52:                                               ; preds = %50
  %53 = load i32, ptr @hf_afp_request_bitmap_OffspringCount, align 4
  %54 = tail call ptr @proto_tree_add_item(ptr noundef %27, i32 noundef %53, ptr noundef %0, i32 noundef 32, i32 noundef 4, i32 noundef 0)
  br label %55

55:                                               ; preds = %52, %50
  %56 = load i32, ptr @hf_afp_request_bitmap_UTF8Name, align 4
  %57 = tail call ptr @proto_tree_add_item(ptr noundef %27, i32 noundef %56, ptr noundef %0, i32 noundef 32, i32 noundef 4, i32 noundef 0)
  br i1 %42, label %58, label %61

58:                                               ; preds = %55
  %59 = load i32, ptr @hf_afp_request_bitmap_ExtRsrcForkLen, align 4
  %60 = tail call ptr @proto_tree_add_item(ptr noundef %27, i32 noundef %59, ptr noundef %0, i32 noundef 32, i32 noundef 4, i32 noundef 0)
  br label %61

61:                                               ; preds = %58, %55
  %62 = load i32, ptr @hf_afp_request_bitmap_PartialNames, align 4
  %63 = tail call ptr @proto_tree_add_item(ptr noundef %27, i32 noundef %62, ptr noundef %0, i32 noundef 32, i32 noundef 4, i32 noundef 0)
  %64 = tail call fastcc i32 @catsearch_spec(ptr noundef %0, ptr noundef %1, i32 noundef 36, i32 noundef %2, i32 noundef %23, ptr noundef nonnull @.str.1077)
  %65 = tail call fastcc i32 @catsearch_spec(ptr noundef %0, ptr noundef %1, i32 noundef %64, i32 noundef %2, i32 noundef %23, ptr noundef nonnull @.str.1078)
  br label %66

66:                                               ; preds = %3, %61
  %.0 = phi i32 [ %65, %61 ], [ 1, %3 ]
  ret i32 %.0
}